target datalayout = "e-m:e-p270:32:32-p271:32:32-p272:64:64-i64:64-i128:128-f80:128-n8:16:32:64-S128"
target triple = "x86_64-pc-linux-gnu"

%struct.index_state = type { ptr, i32, i32, i32, i32, ptr, ptr, ptr, %struct.cache_time, i8, i32, %struct.hashmap, %struct.hashmap, %struct.object_id, ptr, ptr, ptr, ptr, ptr, ptr, ptr }
%struct.cache_time = type { i32, i32 }
%struct.hashmap = type { ptr, ptr, ptr, i32, i32, i32, i32, i8 }
%struct.object_id = type { [32 x i8], i32 }
%struct.cache_entry = type { %struct.hashmap_entry, %struct.stat_data, i32, i32, i32, i32, i32, %struct.object_id, [0 x i8] }
%struct.hashmap_entry = type { ptr, i32 }
%struct.stat_data = type { %struct.cache_time, %struct.cache_time, i32, i32, i32, i32, i32 }

@.str.57 = private unnamed_addr constant [27 x i8] c"size_t overflow: %lu * %lu\00", align 1

; Function Attrs: inlinehint nounwind uwtable
define internal i64 @st_mult(i64 noundef %0, i64 noundef %1) #3 {
  %3 = alloca i64, align 8
  %4 = alloca i64, align 8
  store i64 %0, ptr %3, align 8, !tbaa !31
  store i64 %1, ptr %4, align 8, !tbaa !31
  %5 = load i64, ptr %3, align 8, !tbaa !31
  %6 = icmp ne i64 %5, 0
  br i1 %6, label %7, label %15

7:                                                ; preds = %2
  %8 = load i64, ptr %4, align 8, !tbaa !31
  %9 = load i64, ptr %3, align 8, !tbaa !31
  %10 = udiv i64 -1, %9
  %11 = icmp ugt i64 %8, %10
  br i1 %11, label %12, label %15

12:                                               ; preds = %7
  %13 = load i64, ptr %3, align 8, !tbaa !31
  %14 = load i64, ptr %4, align 8, !tbaa !31
  call void (ptr, ...) @die(ptr noundef @.str.57, i64 noundef %13, i64 noundef %14) #14
  unreachable

15:                                               ; preds = %7, %2
  %16 = load i64, ptr %3, align 8, !tbaa !31
  %17 = load i64, ptr %4, align 8, !tbaa !31
  %18 = mul i64 %16, %17
  ret i64 %18
}

; Function Attrs: inlinehint nounwind uwtable
define internal void @move_array(ptr noundef %0, ptr noundef %1, i64 noundef %2, i64 noundef %3) #3 {
  %5 = alloca ptr, align 8
  %6 = alloca ptr, align 8
  %7 = alloca i64, align 8
  %8 = alloca i64, align 8
  store ptr %0, ptr %5, align 8, !tbaa !64
  store ptr %1, ptr %6, align 8, !tbaa !64
  store i64 %2, ptr %7, align 8, !tbaa !31
  store i64 %3, ptr %8, align 8, !tbaa !31
  %9 = load i64, ptr %7, align 8, !tbaa !31
  %10 = icmp ne i64 %9, 0
  br i1 %10, label %11, label %17

11:                                               ; preds = %4
  %12 = load ptr, ptr %5, align 8, !tbaa !64
  %13 = load ptr, ptr %6, align 8, !tbaa !64
  %14 = load i64, ptr %8, align 8, !tbaa !31
  %15 = load i64, ptr %7, align 8, !tbaa !31
  %16 = call i64 @st_mult(i64 noundef %14, i64 noundef %15)
  call void @llvm.memmove.p0.p0.i64(ptr align 1 %12, ptr align 1 %13, i64 %16, i1 false)
  br label %17

17:                                               ; preds = %11, %4
  ret void
}

; Function Attrs: nounwind uwtable
define dso_local i32 @remove_index_entry_at(ptr noundef %0, i32 noundef %1) #0 {
  %3 = alloca i32, align 4
  %4 = alloca ptr, align 8
  %5 = alloca i32, align 4
  %6 = alloca ptr, align 8
  %7 = alloca i32, align 4
  store ptr %0, ptr %4, align 8, !tbaa !4
  store i32 %1, ptr %5, align 4, !tbaa !9
  call void @llvm.lifetime.start.p0(i64 8, ptr %6) #12
  %8 = load ptr, ptr %4, align 8, !tbaa !4
  %9 = getelementptr inbounds nuw %struct.index_state, ptr %8, i32 0, i32 0
  %10 = load ptr, ptr %9, align 8, !tbaa !13
  %11 = load i32, ptr %5, align 4, !tbaa !9
  %12 = sext i32 %11 to i64
  %13 = getelementptr inbounds ptr, ptr %10, i64 %12
  %14 = load ptr, ptr %13, align 8, !tbaa !29
  store ptr %14, ptr %6, align 8, !tbaa !29
  %15 = load ptr, ptr %4, align 8, !tbaa !4
  %16 = load ptr, ptr %6, align 8, !tbaa !29
  call void @record_resolve_undo(ptr noundef %15, ptr noundef %16)
  %17 = load ptr, ptr %4, align 8, !tbaa !4
  %18 = load ptr, ptr %6, align 8, !tbaa !29
  call void @remove_name_hash(ptr noundef %17, ptr noundef %18)
  %19 = load ptr, ptr %4, align 8, !tbaa !4
  %20 = load ptr, ptr %6, align 8, !tbaa !29
  call void @save_or_free_index_entry(ptr noundef %19, ptr noundef %20)
  %21 = load ptr, ptr %4, align 8, !tbaa !4
  %22 = getelementptr inbounds nuw %struct.index_state, ptr %21, i32 0, i32 4
  %23 = load i32, ptr %22, align 4, !tbaa !33
  %24 = or i32 %23, 4
  store i32 %24, ptr %22, align 4, !tbaa !33
  %25 = load ptr, ptr %4, align 8, !tbaa !4
  %26 = getelementptr inbounds nuw %struct.index_state, ptr %25, i32 0, i32 2
  %27 = load i32, ptr %26, align 4, !tbaa !34
  %28 = add i32 %27, -1
  store i32 %28, ptr %26, align 4, !tbaa !34
  %29 = load i32, ptr %5, align 4, !tbaa !9
  %30 = load ptr, ptr %4, align 8, !tbaa !4
  %31 = getelementptr inbounds nuw %struct.index_state, ptr %30, i32 0, i32 2
  %32 = load i32, ptr %31, align 4, !tbaa !34
  %33 = icmp uge i32 %29, %32
  br i1 %33, label %34, label %35

34:                                               ; preds = %2
  store i32 0, ptr %3, align 4
  store i32 1, ptr %7, align 4
  br label %55

35:                                               ; preds = %2
  %36 = load ptr, ptr %4, align 8, !tbaa !4
  %37 = getelementptr inbounds nuw %struct.index_state, ptr %36, i32 0, i32 0
  %38 = load ptr, ptr %37, align 8, !tbaa !13
  %39 = load i32, ptr %5, align 4, !tbaa !9
  %40 = sext i32 %39 to i64
  %41 = getelementptr inbounds ptr, ptr %38, i64 %40
  %42 = load ptr, ptr %4, align 8, !tbaa !4
  %43 = getelementptr inbounds nuw %struct.index_state, ptr %42, i32 0, i32 0
  %44 = load ptr, ptr %43, align 8, !tbaa !13
  %45 = load i32, ptr %5, align 4, !tbaa !9
  %46 = sext i32 %45 to i64
  %47 = getelementptr inbounds ptr, ptr %44, i64 %46
  %48 = getelementptr inbounds ptr, ptr %47, i64 1
  %49 = load ptr, ptr %4, align 8, !tbaa !4
  %50 = getelementptr inbounds nuw %struct.index_state, ptr %49, i32 0, i32 2
  %51 = load i32, ptr %50, align 4, !tbaa !34
  %52 = load i32, ptr %5, align 4, !tbaa !9
  %53 = sub i32 %51, %52
  %54 = zext i32 %53 to i64
  call void @move_array(ptr noundef %41, ptr noundef %48, i64 noundef %54, i64 noundef 8)
  store i32 1, ptr %3, align 4
  store i32 1, ptr %7, align 4
  br label %55

55:                                               ; preds = %35, %34
  call void @llvm.lifetime.end.p0(i64 8, ptr %6) #12
  %56 = load i32, ptr %3, align 4
  ret i32 %56
}

; Function Attrs: nounwind uwtable
define dso_local i32 @index_name_pos(ptr noundef %0, ptr noundef %1, i32 noundef %2) #0 {
  %4 = alloca ptr, align 8
  %5 = alloca ptr, align 8
  %6 = alloca i32, align 4
  store ptr %0, ptr %4, align 8, !tbaa !4
  store ptr %1, ptr %5, align 8, !tbaa !11
  store i32 %2, ptr %6, align 4, !tbaa !9
  %7 = load ptr, ptr %4, align 8, !tbaa !4
  %8 = load ptr, ptr %5, align 8, !tbaa !11
  %9 = load i32, ptr %6, align 4, !tbaa !9
  %10 = call i32 @index_name_stage_pos(ptr noundef %7, ptr noundef %8, i32 noundef %9, i32 noundef 0, i32 noundef 1)
  ret i32 %10
}

; Function Attrs: nounwind uwtable
define dso_local i32 @remove_file_from_index(ptr noundef %0, ptr noundef %1) #0 {
  %3 = alloca ptr, align 8
  %4 = alloca ptr, align 8
  %5 = alloca i32, align 4
  store ptr %0, ptr %3, align 8, !tbaa !4
  store ptr %1, ptr %4, align 8, !tbaa !11
  call void @llvm.lifetime.start.p0(i64 4, ptr %5) #12
  %6 = load ptr, ptr %3, align 8, !tbaa !4
  %7 = load ptr, ptr %4, align 8, !tbaa !11
  %8 = load ptr, ptr %4, align 8, !tbaa !11
  %9 = call i64 @strlen(ptr noundef %8) #13
  %10 = trunc i64 %9 to i32
  %11 = call i32 @index_name_pos(ptr noundef %6, ptr noundef %7, i32 noundef %10)
  store i32 %11, ptr %5, align 4, !tbaa !9
  %12 = load i32, ptr %5, align 4, !tbaa !9
  %13 = icmp slt i32 %12, 0
  br i1 %13, label %14, label %18

14:                                               ; preds = %2
  %15 = load i32, ptr %5, align 4, !tbaa !9
  %16 = sub nsw i32 0, %15
  %17 = sub nsw i32 %16, 1
  store i32 %17, ptr %5, align 4, !tbaa !9
  br label %18

18:                                               ; preds = %14, %2
  %19 = load ptr, ptr %3, align 8, !tbaa !4
  %20 = load ptr, ptr %4, align 8, !tbaa !11
  call void @cache_tree_invalidate_path(ptr noundef %19, ptr noundef %20)
  %21 = load ptr, ptr %3, align 8, !tbaa !4
  %22 = load ptr, ptr %4, align 8, !tbaa !11
  call void @untracked_cache_remove_from_index(ptr noundef %21, ptr noundef %22)
  br label %23

23:                                               ; preds = %45, %18
  %24 = load i32, ptr %5, align 4, !tbaa !9
  %25 = load ptr, ptr %3, align 8, !tbaa !4
  %26 = getelementptr inbounds nuw %struct.index_state, ptr %25, i32 0, i32 2
  %27 = load i32, ptr %26, align 4, !tbaa !34
  %28 = icmp ult i32 %24, %27
  br i1 %28, label %29, label %43

29:                                               ; preds = %23
  %30 = load ptr, ptr %3, align 8, !tbaa !4
  %31 = getelementptr inbounds nuw %struct.index_state, ptr %30, i32 0, i32 0
  %32 = load ptr, ptr %31, align 8, !tbaa !13
  %33 = load i32, ptr %5, align 4, !tbaa !9
  %34 = sext i32 %33 to i64
  %35 = getelementptr inbounds ptr, ptr %32, i64 %34
  %36 = load ptr, ptr %35, align 8, !tbaa !29
  %37 = getelementptr inbounds nuw %struct.cache_entry, ptr %36, i32 0, i32 8
  %38 = getelementptr inbounds [0 x i8], ptr %37, i64 0, i64 0
  %39 = load ptr, ptr %4, align 8, !tbaa !11
  %40 = call i32 @strcmp(ptr noundef %38, ptr noundef %39) #13
  %41 = icmp ne i32 %40, 0
  %42 = xor i1 %41, true
  br label %43

43:                                               ; preds = %29, %23
  %44 = phi i1 [ false, %23 ], [ %42, %29 ]
  br i1 %44, label %45, label %49

45:                                               ; preds = %43
  %46 = load ptr, ptr %3, align 8, !tbaa !4
  %47 = load i32, ptr %5, align 4, !tbaa !9
  %48 = call i32 @remove_index_entry_at(ptr noundef %46, i32 noundef %47)
  br label %23, !llvm.loop !70

49:                                               ; preds = %43
  call void @llvm.lifetime.end.p0(i64 4, ptr %5) #12
  ret i32 0
}