; Function Attrs: nounwind uwtable
define dso_local noundef i32 @remove_file_from_index(ptr noundef %0, ptr noundef %1) local_unnamed_addr #0 {
  %3 = tail call i64 @strlen(ptr noundef nonnull dereferenceable(1) %1) #29
  %4 = trunc i64 %3 to i32
  %5 = tail call fastcc i32 @index_name_stage_pos(ptr noundef %0, ptr noundef nonnull %1, i32 noundef %4, i32 noundef 0, i32 noundef 1)
  %.lobit = ashr i32 %5, 31
  %spec.select = xor i32 %.lobit, %5
  tail call void @cache_tree_invalidate_path(ptr noundef %0, ptr noundef nonnull %1) #30
  tail call void @untracked_cache_remove_from_index(ptr noundef %0, ptr noundef nonnull %1) #30
  %6 = getelementptr inbounds nuw i8, ptr %0, i64 12
  %7 = load i32, ptr %6, align 4, !tbaa !34
  %8 = icmp ult i32 %spec.select, %7
  br i1 %8, label %.lr.ph, label %.critedge

.lr.ph:                                           ; preds = %2
  %9 = zext nneg i32 %spec.select to i64
  %10 = sext i32 %spec.select to i64
  %11 = getelementptr inbounds nuw i8, ptr %0, i64 20
  br label %12

12:                                               ; preds = %.lr.ph, %remove_index_entry_at.exit
  %13 = load ptr, ptr %0, align 8, !tbaa !4
  %14 = getelementptr inbounds nuw ptr, ptr %13, i64 %9
  %15 = load ptr, ptr %14, align 8, !tbaa !25
  %16 = getelementptr inbounds nuw i8, ptr %15, i64 108
  %17 = tail call i32 @strcmp(ptr noundef nonnull dereferenceable(1) %16, ptr noundef nonnull dereferenceable(1) %1) #29
  %.not = icmp eq i32 %17, 0
  br i1 %.not, label %18, label %.critedge

18:                                               ; preds = %12
  tail call void @record_resolve_undo(ptr noundef nonnull %0, ptr noundef nonnull %15) #30
  tail call void @remove_name_hash(ptr noundef nonnull %0, ptr noundef nonnull %15) #30
  tail call void @save_or_free_index_entry(ptr noundef nonnull %0, ptr noundef nonnull %15) #30
  %19 = load i32, ptr %11, align 4, !tbaa !33
  %20 = or i32 %19, 4
  store i32 %20, ptr %11, align 4, !tbaa !33
  %21 = load i32, ptr %6, align 4, !tbaa !34
  %22 = add i32 %21, -1
  store i32 %22, ptr %6, align 4, !tbaa !34
  %.not.i = icmp ult i32 %spec.select, %22
  br i1 %.not.i, label %23, label %remove_index_entry_at.exit

23:                                               ; preds = %18
  %24 = sub nuw i32 %22, %spec.select
  %25 = zext i32 %24 to i64
  %26 = load ptr, ptr %0, align 8, !tbaa !4
  %27 = getelementptr inbounds ptr, ptr %26, i64 %10
  %28 = getelementptr inbounds nuw i8, ptr %27, i64 8
  %29 = shl nuw nsw i64 %25, 3
  tail call void @llvm.memmove.p0.p0.i64(ptr align 1 %27, ptr nonnull readonly align 1 %28, i64 %29, i1 false)
  %.pre = load i32, ptr %6, align 4, !tbaa !34
  br label %remove_index_entry_at.exit

remove_index_entry_at.exit:                       ; preds = %18, %23
  %30 = phi i32 [ %22, %18 ], [ %.pre, %23 ]
  %31 = icmp ult i32 %spec.select, %30
  br i1 %31, label %12, label %.critedge, !llvm.loop !78

.critedge:                                        ; preds = %12, %remove_index_entry_at.exit, %2
  ret i32 0
}